ccopy_reg
_reconstructor
p0
(cmlworkflow
Data
p1
c__builtin__
object
p2
Ntp3
Rp4
(dp5
S'keyword'
p6
S'lossCurve'
p7
sS'dataType'
p8
S'lineplot'
p9
sS'filename'
p10
NsS'instance'
p11
I-1
sS'threadSpecific'
p12
I00
sS'data'
p13
(dp14
S'legendLoc'
p15
S'upper right'
p16
sS'title'
p17
S'Train/Test loss curve'
p18
sS'format'
p19
S'png'
p20
sS'xlabel'
p21
S'Epoch'
p22
sS'ylabel'
p23
S'Loss'
p24
sg13
cnumpy.core.multiarray
_reconstruct
p25
(cnumpy
ndarray
p26
(I0
tp27
S'b'
p28
tp29
Rp30
(I1
(I3
I1
tp31
cnumpy
dtype
p32
(S'f8'
p33
I0
I1
tp34
Rp35
(I3
S'<'
p36
NNNI-1
I-1
I0
tp37
bI00
S'\x00\x00\x00\x00\x00\x00\x00\x00\x85\xebQ\xb0\xf32\x1d@\x8f\xc2\xf5hN~3@'
p38
tp39
bsS'legend'
p40
(lp41
S'Train Loss'
p42
aS'Test Loss'
p43
assb.