ccopy_reg
_reconstructor
p0
(cmlworkflow
Data
p1
c__builtin__
object
p2
Ntp3
Rp4
(dp5
S'keyword'
p6
S'ganTrainPlot'
p7
sS'dataType'
p8
S'lineplot'
p9
sS'filename'
p10
NsS'instance'
p11
I-1
sS'threadSpecific'
p12
I00
sS'data'
p13
(dp14
S'format'
p15
S'png'
p16
sS'title'
p17
S'GAN training curve'
p18
sS'xlabel'
p19
S'Epoch'
p20
sS'ylabel'
p21
S'Average error'
p22
sg13
cnumpy.core.multiarray
_reconstruct
p23
(cnumpy
ndarray
p24
(I0
tp25
S'b'
p26
tp27
Rp28
(I1
(I3
I1
tp29
cnumpy
dtype
p30
(S'f8'
p31
I0
I1
tp32
Rp33
(I3
S'<'
p34
NNNI-1
I-1
I0
tp35
bI00
S'\x00\x00\x00\x00\x00\x00\x00\x00\xdc\xf1\xd2nHF\x14@4\x7f-\xa7\x1f\x8c\xf2?'
p36
tp37
bsS'legend'
p38
(lp39
S'Generator error'
p40
aS'Discriminator Error'
p41
assb.